Certificate:
    Data:
        Version: 3 (0x2)
        Serial Number:
            0a:e0:aa:bf:c5:d4:01:a9:28:c7:e9:1d:bb:3a:fe:a6:4b:71:5b:53
        Signature Algorithm: sha256WithRSAEncryption
        Issuer: C=VN, ST=HN, O=VTS, OU=VTS, CN=DUC/emailAddress=manhduc030402@gmail.com
        Validity
            Not Before: Nov  4 10:56:56 2023 GMT
            Not After : Nov  3 10:56:56 2026 GMT
        Subject: C=VN, ST=HN, O=VTS, OU=VTS, CN=DUC/emailAddress=manhduc030402@gmail.com
        Subject Public Key Info:
            Public Key Algorithm: rsaEncryption
                Public-Key: (2048 bit)
                Modulus:
                    00:d5:8e:6f:a7:0b:1e:80:d7:be:3a:c9:bd:62:4e:
                    5c:97:d5:55:33:59:fb:cf:84:29:52:c1:ba:a8:3c:
                    5c:82:cd:42:37:22:c7:ac:0d:41:78:4a:79:8b:de:
                    f3:fe:52:16:16:00:67:50:7a:43:91:df:c0:25:6b:
                    92:a2:2f:fc:23:e2:bf:4f:36:a2:19:af:60:26:d4:
                    ed:a5:5e:be:5e:42:60:bb:a7:cc:bb:08:87:8d:77:
                    e5:d0:13:8e:33:08:a3:c4:d6:55:be:37:29:d4:13:
                    c0:c4:65:36:83:5d:3b:40:c2:0e:44:d3:c1:45:09:
                    1c:eb:e5:b9:af:45:e8:bb:0a:76:af:bd:52:20:14:
                    c5:ce:f2:15:48:c4:05:d7:96:ad:e7:cd:26:d3:46:
                    57:5e:95:85:0a:40:a3:3b:13:c2:3a:1f:51:c0:d5:
                    b0:72:15:33:0d:ca:b1:c9:3b:00:ed:76:0e:47:48:
                    d2:be:0c:67:9c:11:d4:d5:69:60:b4:fa:29:10:06:
                    0c:2a:b8:e5:29:35:ea:4b:d6:83:da:d1:45:b8:74:
                    91:c5:9a:e2:04:7b:90:50:92:a5:05:dc:f3:28:9f:
                    d9:ff:0d:80:c6:9c:f7:da:60:9b:e6:e7:ec:b7:65:
                    72:d3:c7:3e:02:e6:b7:72:31:8a:19:ed:1d:20:0e:
                    40:01
                Exponent: 65537 (0x10001)
        X509v3 extensions:
            X509v3 Subject Key Identifier: 
                71:4A:6D:7F:5F:A6:0A:51:40:E5:EC:95:0D:C5:41:6D:4A:E2:54:C5
            X509v3 Authority Key Identifier: 
                71:4A:6D:7F:5F:A6:0A:51:40:E5:EC:95:0D:C5:41:6D:4A:E2:54:C5
            X509v3 Basic Constraints: critical
                CA:TRUE
    Signature Algorithm: sha256WithRSAEncryption
    Signature Value:
        13:92:f9:cc:e1:c9:20:58:6a:e4:7a:85:9c:8e:2c:6b:43:9b:
        fa:ba:62:db:de:76:a6:f0:11:cd:e5:cd:5c:a5:24:0b:89:fd:
        0d:00:df:52:a6:b4:2b:6e:1b:65:3b:39:21:91:ca:cb:42:d8:
        c8:7f:89:00:b2:b2:52:4c:7a:bc:49:6c:98:b1:54:28:0b:27:
        4b:e6:76:0c:19:93:e3:57:f8:d5:75:31:a4:89:71:b7:01:33:
        dc:10:3e:9b:50:3e:4b:c1:b5:08:b2:d6:9e:e6:a4:ae:71:4f:
        d1:e3:ac:47:72:12:b7:aa:82:28:d2:bf:34:23:90:45:df:63:
        c0:83:db:d7:83:29:da:f6:6f:58:b8:d3:cb:ca:77:ef:4f:24:
        e4:16:7b:e7:27:4c:dd:ce:b2:3d:a6:a3:c6:36:5d:33:92:97:
        2d:6f:ae:6c:5a:09:f6:c5:d8:f7:22:a0:45:d0:56:9a:f5:f4:
        f9:1b:87:99:95:bc:61:86:f6:31:0c:13:ff:a5:f3:08:56:12:
        01:c1:66:f0:0f:b6:1f:86:6a:dd:f3:af:b6:c4:2f:1e:79:60:
        fc:20:cd:bf:bd:53:03:3f:03:51:31:77:e6:c3:39:dc:6d:8f:
        c5:59:86:a9:d3:c3:c2:2f:bf:c6:c2:e0:a4:6b:be:54:4a:ff:
        43:92:7a:20
-----BEGIN CERTIFICATE-----
MIIDuTCCAqGgAwIBAgIUCuCqv8XUAakox+kduzr+pktxW1MwDQYJKoZIhvcNAQEL
BQAwbDELMAkGA1UEBhMCVk4xCzAJBgNVBAgMAkhOMQwwCgYDVQQKDANWVFMxDDAK
BgNVBAsMA1ZUUzEMMAoGA1UEAwwDRFVDMSYwJAYJKoZIhvcNAQkBFhdtYW5oZHVj
MDMwNDAyQGdtYWlsLmNvbTAeFw0yMzExMDQxMDU2NTZaFw0yNjExMDMxMDU2NTZa
MGwxCzAJBgNVBAYTAlZOMQswCQYDVQQIDAJITjEMMAoGA1UECgwDVlRTMQwwCgYD
VQQLDANWVFMxDDAKBgNVBAMMA0RVQzEmMCQGCSqGSIb3DQEJARYXbWFuaGR1YzAz
MDQwMkBnbWFpbC5jb20wggEiMA0GCSqGSIb3DQEBAQUAA4IBDwAwggEKAoIBAQDV
jm+nCx6A1746yb1iTlyX1VUzWfvPhClSwbqoPFyCzUI3IsesDUF4SnmL3vP+UhYW
AGdQekOR38Ala5KiL/wj4r9PNqIZr2Am1O2lXr5eQmC7p8y7CIeNd+XQE44zCKPE
1lW+NynUE8DEZTaDXTtAwg5E08FFCRzr5bmvRei7CnavvVIgFMXO8hVIxAXXlq3n
zSbTRldelYUKQKM7E8I6H1HA1bByFTMNyrHJOwDtdg5HSNK+DGecEdTVaWC0+ikQ
BgwquOUpNepL1oPa0UW4dJHFmuIEe5BQkqUF3PMon9n/DYDGnPfaYJvm5+y3ZXLT
xz4C5rdyMYoZ7R0gDkABAgMBAAGjUzBRMB0GA1UdDgQWBBRxSm1/X6YKUUDl7JUN
xUFtSuJUxTAfBgNVHSMEGDAWgBRxSm1/X6YKUUDl7JUNxUFtSuJUxTAPBgNVHRMB
Af8EBTADAQH/MA0GCSqGSIb3DQEBCwUAA4IBAQATkvnM4ckgWGrkeoWcjixrQ5v6
umLb3nam8BHN5c1cpSQLif0NAN9SprQrbhtlOzkhkcrLQtjIf4kAsrJSTHq8SWyY
sVQoCydL5nYMGZPjV/jVdTGkiXG3ATPcED6bUD5LwbUIstae5qSucU/R46xHchK3
qoIo0r80I5BF32PAg9vXgyna9m9YuNPLynfvTyTkFnvnJ0zdzrI9pqPGNl0zkpct
b65sWgn2xdj3IqBF0Faa9fT5G4eZlbxhhvYxDBP/pfMIVhIBwWbwD7Yfhmrd86+2
xC8eeWD8IM2/vVMDPwNRMXfmwzncbY/FWYap08PCL7/GwuCka75USv9Dknog
-----END CERTIFICATE-----
