Certificate:
    Data:
        Version: 3 (0x2)
        Serial Number:
            0a:e0:aa:bf:c5:d4:01:a9:28:c7:e9:1d:bb:3a:fe:a6:4b:71:5b:54
        Signature Algorithm: sha256WithRSAEncryption
        Issuer: C=VN, ST=HN, L=HD, O=VTS, OU=VTS, CN=DUC/emailAddress=manhduc030402@gmail.com
        Validity
            Not Before: Nov  4 11:03:14 2023 GMT
            Not After : Mar 21 11:03:14 2051 GMT
        Subject: C=VN, ST=HN, O=VTS, OU=VTS1, CN=DUC1/emailAddress=manhduc030402@gmail.com
        Subject Public Key Info:
            Public Key Algorithm: rsaEncryption
                Public-Key: (1024 bit)
                Modulus:
                    00:af:3f:52:b9:b8:43:25:f2:6e:7b:61:eb:ba:8c:
                    71:94:87:ca:04:2e:ed:f1:c9:b0:1e:39:48:82:d8:
                    d3:6c:2d:f0:0e:ce:8e:f7:a2:1a:ee:9f:de:a7:74:
                    fd:fb:ea:8c:27:66:a9:e9:d7:92:26:74:f0:b9:0c:
                    50:b4:3a:d4:c5:da:05:4e:7b:16:c8:a6:a8:f4:06:
                    ff:ac:55:69:a1:e8:f1:09:98:bf:3b:24:0a:fe:4b:
                    71:85:94:9c:63:96:b8:f0:99:6a:07:6c:18:7f:79:
                    bd:b7:a4:59:7c:ad:cb:bd:b1:02:23:1d:91:46:f2:
                    a5:4a:43:a6:8e:c2:01:59:67
                Exponent: 65537 (0x10001)
        X509v3 extensions:
            X509v3 Basic Constraints: 
                CA:FALSE
            X509v3 Subject Key Identifier: 
                65:F7:DD:58:78:60:D8:F6:AC:48:F8:14:18:C5:91:1F:B4:55:DC:E9
            X509v3 Authority Key Identifier: 
                BA:A3:25:16:FD:05:6B:00:3D:1F:3F:05:03:A4:E7:F7:B4:CA:23:7F
    Signature Algorithm: sha256WithRSAEncryption
    Signature Value:
        71:a6:9b:d0:6d:37:bb:e5:48:53:71:e3:90:5f:74:74:e6:2b:
        46:d0:11:cd:7c:c6:0b:6d:5c:99:46:4c:48:c2:fd:ed:4f:44:
        1e:ec:05:58:95:e5:97:49:88:3f:5d:aa:52:fc:b2:ad:d9:65:
        8f:06:16:f1:ce:5e:3a:fb:90:fd:e6:dd:4e:e1:79:a5:db:b6:
        2c:4b:c4:0c:4c:5d:f4:d4:dc:4b:79:78:8b:04:92:0f:e1:18:
        09:b3:bd:a1:a4:5f:73:49:5c:97:0b:05:c6:06:2e:c7:a6:01:
        5e:46:4d:99:13:f3:2e:5b:99:29:71:66:04:34:57:e5:4b:ea:
        64:bd
-----BEGIN CERTIFICATE-----
MIICvzCCAiigAwIBAgIUCuCqv8XUAakox+kduzr+pktxW1QwDQYJKoZIhvcNAQEL
BQAweTELMAkGA1UEBhMCVk4xCzAJBgNVBAgMAkhOMQswCQYDVQQHDAJIRDEMMAoG
A1UECgwDVlRTMQwwCgYDVQQLDANWVFMxDDAKBgNVBAMMA0RVQzEmMCQGCSqGSIb3
DQEJARYXbWFuaGR1YzAzMDQwMkBnbWFpbC5jb20wIBcNMjMxMTA0MTEwMzE0WhgP
MjA1MTAzMjExMTAzMTRaMG4xCzAJBgNVBAYTAlZOMQswCQYDVQQIDAJITjEMMAoG
A1UECgwDVlRTMQ0wCwYDVQQLDARWVFMxMQ0wCwYDVQQDDAREVUMxMSYwJAYJKoZI
hvcNAQkBFhdtYW5oZHVjMDMwNDAyQGdtYWlsLmNvbTCBnzANBgkqhkiG9w0BAQEF
AAOBjQAwgYkCgYEArz9SubhDJfJue2HruoxxlIfKBC7t8cmwHjlIgtjTbC3wDs6O
96Ia7p/ep3T9++qMJ2ap6deSJnTwuQxQtDrUxdoFTnsWyKao9Ab/rFVpoejxCZi/
OyQK/ktxhZScY5a48JlqB2wYf3m9t6RZfK3LvbECIx2RRvKlSkOmjsIBWWcCAwEA
AaNNMEswCQYDVR0TBAIwADAdBgNVHQ4EFgQUZffdWHhg2PasSPgUGMWRH7RV3Okw
HwYDVR0jBBgwFoAUuqMlFv0FawA9Hz8FA6Tn97TKI38wDQYJKoZIhvcNAQELBQAD
gYEAcaab0G03u+VIU3HjkF90dOYrRtARzXzGC21cmUZMSML97U9EHuwFWJXll0mI
P12qUvyyrdlljwYW8c5eOvuQ/ebdTuF5pdu2LEvEDExd9NTcS3l4iwSSD+EYCbO9
oaRfc0lclwsFxgYux6YBXkZNmRPzLluZKXFmBDRX5UvqZL0=
-----END CERTIFICATE-----
