Certificate:
    Data:
        Version: 3 (0x2)
        Serial Number:
            19:1e:e7:cf:fc:b4:c4:dd:60:f5:10:c0:20:94:be:11:dd:6a:8d:bb
        Signature Algorithm: sha256WithRSAEncryption
        Issuer: C=VN, ST=HN, L=HD, O=VTS, OU=VTS, CN=DUC/emailAddress=manhduc030402@gmail.com
        Validity
            Not Before: Nov  5 18:51:50 2023 GMT
            Not After : Mar 22 18:51:50 2051 GMT
        Subject: C=VN, ST=HN, O=VTS, OU=VTS1, CN=DUC1/emailAddress=manhduc030402@gmail.com
        Subject Public Key Info:
            Public Key Algorithm: rsaEncryption
                Public-Key: (1024 bit)
                Modulus:
                    00:b1:ca:a0:d7:a5:f1:bf:36:30:62:3d:00:2b:90:
                    9e:9e:fb:09:2e:40:21:da:13:3e:42:2c:92:11:5f:
                    de:e6:e0:4d:ca:fb:82:d9:ee:df:90:3e:e6:fb:0d:
                    a6:da:1d:ce:df:b3:27:50:70:c0:dc:6a:ca:b5:2f:
                    53:22:a9:85:0c:3f:56:18:f0:07:e3:7f:fa:30:95:
                    99:e9:8e:dd:dd:d5:43:4b:11:0f:e4:b4:8e:ac:ba:
                    8e:66:2e:93:fb:9b:a9:ea:82:cf:34:92:c1:a7:73:
                    f0:fa:8b:ad:48:45:3f:f9:9f:83:20:14:c1:d8:a7:
                    dc:8f:50:5f:d3:0c:55:36:cb
                Exponent: 65537 (0x10001)
        X509v3 extensions:
            X509v3 Basic Constraints: 
                CA:FALSE
            X509v3 Subject Key Identifier: 
                08:57:23:85:04:0E:69:C8:25:37:3B:B9:7A:E5:7A:4C:C9:79:EB:29
            X509v3 Authority Key Identifier: 
                11:97:7C:EA:2D:EC:5C:07:AE:F4:B8:85:30:55:A5:4B:E5:EF:DD:A3
    Signature Algorithm: sha256WithRSAEncryption
    Signature Value:
        52:ad:46:86:e2:8d:5a:a7:a1:55:b3:11:86:59:77:77:9b:03:
        46:18:3e:4f:05:da:f3:d4:f0:94:ce:d3:de:72:f7:81:ed:f7:
        01:b5:85:82:39:17:ac:02:99:1f:35:8e:6f:3e:9c:ed:0c:18:
        b0:de:e8:92:aa:8a:bd:54:2d:05:03:39:6c:63:27:4c:18:4d:
        41:b3:27:57:ba:da:4a:34:9d:f8:34:2c:98:54:fe:6f:d4:da:
        e4:0e:5f:fd:f2:cd:da:4f:33:0e:ee:50:e6:29:12:c4:b1:3a:
        6a:b3:06:7b:e5:5b:51:01:73:15:fa:f5:9f:9e:9a:df:a6:92:
        85:f2
-----BEGIN CERTIFICATE-----
MIICvzCCAiigAwIBAgIUGR7nz/y0xN1g9RDAIJS+Ed1qjbswDQYJKoZIhvcNAQEL
BQAweTELMAkGA1UEBhMCVk4xCzAJBgNVBAgMAkhOMQswCQYDVQQHDAJIRDEMMAoG
A1UECgwDVlRTMQwwCgYDVQQLDANWVFMxDDAKBgNVBAMMA0RVQzEmMCQGCSqGSIb3
DQEJARYXbWFuaGR1YzAzMDQwMkBnbWFpbC5jb20wIBcNMjMxMTA1MTg1MTUwWhgP
MjA1MTAzMjIxODUxNTBaMG4xCzAJBgNVBAYTAlZOMQswCQYDVQQIDAJITjEMMAoG
A1UECgwDVlRTMQ0wCwYDVQQLDARWVFMxMQ0wCwYDVQQDDAREVUMxMSYwJAYJKoZI
hvcNAQkBFhdtYW5oZHVjMDMwNDAyQGdtYWlsLmNvbTCBnzANBgkqhkiG9w0BAQEF
AAOBjQAwgYkCgYEAscqg16XxvzYwYj0AK5CenvsJLkAh2hM+QiySEV/e5uBNyvuC
2e7fkD7m+w2m2h3O37MnUHDA3GrKtS9TIqmFDD9WGPAH43/6MJWZ6Y7d3dVDSxEP
5LSOrLqOZi6T+5up6oLPNJLBp3Pw+outSEU/+Z+DIBTB2Kfcj1Bf0wxVNssCAwEA
AaNNMEswCQYDVR0TBAIwADAdBgNVHQ4EFgQUCFcjhQQOacglNzu5euV6TMl56ykw
HwYDVR0jBBgwFoAUEZd86i3sXAeu9LiFMFWlS+Xv3aMwDQYJKoZIhvcNAQELBQAD
gYEAUq1GhuKNWqehVbMRhll3d5sDRhg+TwXa89TwlM7T3nL3ge33AbWFgjkXrAKZ
HzWObz6c7QwYsN7okqqKvVQtBQM5bGMnTBhNQbMnV7raSjSd+DQsmFT+b9Ta5A5f
/fLN2k8zDu5Q5ikSxLE6arMGe+VbUQFzFfr1n56a36aShfI=
-----END CERTIFICATE-----
