Certificate:
    Data:
        Version: 3 (0x2)
        Serial Number:
            13:17:d6:8f:29:4a:3f:dd:25:52:68:bf:f8:77:47:96:d8:57:eb:f0
        Signature Algorithm: sha256WithRSAEncryption
        Issuer: C=vn, ST=HN, O=VTS, OU=VTS, CN=DUC/emailAddress=manhduc030402@gmail.com
        Validity
            Not Before: Nov  3 12:00:34 2023 GMT
            Not After : Nov  2 12:00:34 2026 GMT
        Subject: C=vn, ST=HN, O=VTS, OU=VTS, CN=DUC/emailAddress=manhduc030402@gmail.com
        Subject Public Key Info:
            Public Key Algorithm: rsaEncryption
                Public-Key: (2048 bit)
                Modulus:
                    00:dc:4f:58:ab:b2:1a:8b:62:d0:a9:33:8e:1b:5a:
                    ec:75:87:d1:ba:b2:7a:74:9a:24:5c:2a:30:e9:63:
                    41:3e:97:42:59:fb:d8:32:90:1f:21:f6:94:73:a8:
                    cc:5c:ed:31:e3:73:1a:05:98:f4:7b:04:c4:eb:aa:
                    54:24:ed:47:02:5e:07:39:2c:0e:1d:09:37:d2:ea:
                    46:1a:91:ae:82:03:af:85:63:0b:54:0a:1f:be:8d:
                    f1:fc:28:a0:7e:b7:cb:e1:bb:12:e8:f8:d0:6f:3a:
                    66:93:b4:b5:e0:1f:3c:db:2a:f2:4d:1c:6c:a8:fe:
                    35:53:60:28:63:c7:75:1f:d7:fd:23:e8:17:de:94:
                    f8:f6:e9:85:51:a8:18:85:b2:d1:e6:aa:64:08:ae:
                    e4:e1:ce:23:64:05:e5:5f:a0:2d:1b:9d:33:ea:1d:
                    02:ce:02:78:0f:90:8a:41:2c:0f:e6:24:b3:0d:7e:
                    2b:d0:75:0d:b4:26:2f:8f:10:22:77:43:18:07:40:
                    aa:5c:c2:b6:80:7b:78:b0:5e:6d:e2:95:57:73:fa:
                    aa:c8:c1:ee:79:5c:a7:07:48:d7:93:a3:69:8f:53:
                    4e:6b:35:f6:b9:b2:ab:96:79:23:83:43:88:f1:ce:
                    a6:d4:f6:e3:a3:0a:87:c3:a3:44:f2:72:e1:8c:7b:
                    f5:1f
                Exponent: 65537 (0x10001)
        X509v3 extensions:
            X509v3 Subject Key Identifier: 
                3F:62:FF:D6:4A:EB:1C:AB:85:57:C6:47:F8:46:C3:8A:06:71:DE:1A
            X509v3 Authority Key Identifier: 
                3F:62:FF:D6:4A:EB:1C:AB:85:57:C6:47:F8:46:C3:8A:06:71:DE:1A
            X509v3 Basic Constraints: critical
                CA:TRUE
    Signature Algorithm: sha256WithRSAEncryption
    Signature Value:
        07:a7:90:9a:66:f4:9e:44:8d:6e:f8:ae:27:79:6a:b9:a0:ce:
        74:3e:b0:3f:bd:c3:89:a3:74:23:24:8f:a0:cc:d2:c1:33:42:
        bc:3c:44:07:d0:a8:07:41:f9:69:58:d5:ee:e4:54:67:db:e8:
        40:9c:03:29:16:6a:ee:d2:4e:7e:49:fc:68:4a:4b:41:f3:b5:
        83:b1:ab:51:02:01:4f:79:c9:82:2c:b0:c9:8f:0f:a4:95:1e:
        d6:b0:35:70:ad:ba:01:2b:52:fa:3a:25:9c:9c:bf:fe:a6:8d:
        5c:16:b9:f3:49:89:0e:e4:31:4b:30:b0:2b:41:64:e1:50:f2:
        9d:d5:c7:95:f1:fe:ff:07:84:c2:5c:96:f4:ac:c6:d0:d4:eb:
        d1:eb:16:bc:25:db:d2:22:36:fb:0e:c8:f2:f1:6b:f2:28:46:
        68:ed:33:f8:69:d3:82:65:8d:7d:f7:25:a9:87:8e:1f:cc:33:
        16:e2:7e:37:a7:a1:39:97:24:69:b6:39:f2:71:9a:af:bf:8e:
        ea:50:37:11:18:30:fe:89:ef:1a:b0:7c:5e:c7:88:9c:15:d1:
        11:ca:62:ef:89:d7:9f:99:69:64:07:e7:44:14:63:5c:f9:75:
        60:3f:c8:97:75:fb:6c:0e:19:76:dd:2a:15:64:31:1a:b1:11:
        0b:fb:61:ea
-----BEGIN CERTIFICATE-----
MIIDuTCCAqGgAwIBAgIUExfWjylKP90lUmi/+HdHlthX6/AwDQYJKoZIhvcNAQEL
BQAwbDELMAkGA1UEBhMCdm4xCzAJBgNVBAgMAkhOMQwwCgYDVQQKDANWVFMxDDAK
BgNVBAsMA1ZUUzEMMAoGA1UEAwwDRFVDMSYwJAYJKoZIhvcNAQkBFhdtYW5oZHVj
MDMwNDAyQGdtYWlsLmNvbTAeFw0yMzExMDMxMjAwMzRaFw0yNjExMDIxMjAwMzRa
MGwxCzAJBgNVBAYTAnZuMQswCQYDVQQIDAJITjEMMAoGA1UECgwDVlRTMQwwCgYD
VQQLDANWVFMxDDAKBgNVBAMMA0RVQzEmMCQGCSqGSIb3DQEJARYXbWFuaGR1YzAz
MDQwMkBnbWFpbC5jb20wggEiMA0GCSqGSIb3DQEBAQUAA4IBDwAwggEKAoIBAQDc
T1irshqLYtCpM44bWux1h9G6snp0miRcKjDpY0E+l0JZ+9gykB8h9pRzqMxc7THj
cxoFmPR7BMTrqlQk7UcCXgc5LA4dCTfS6kYaka6CA6+FYwtUCh++jfH8KKB+t8vh
uxLo+NBvOmaTtLXgHzzbKvJNHGyo/jVTYChjx3Uf1/0j6BfelPj26YVRqBiFstHm
qmQIruThziNkBeVfoC0bnTPqHQLOAngPkIpBLA/mJLMNfivQdQ20Ji+PECJ3QxgH
QKpcwraAe3iwXm3ilVdz+qrIwe55XKcHSNeTo2mPU05rNfa5squWeSODQ4jxzqbU
9uOjCofDo0TycuGMe/UfAgMBAAGjUzBRMB0GA1UdDgQWBBQ/Yv/WSuscq4VXxkf4
RsOKBnHeGjAfBgNVHSMEGDAWgBQ/Yv/WSuscq4VXxkf4RsOKBnHeGjAPBgNVHRMB
Af8EBTADAQH/MA0GCSqGSIb3DQEBCwUAA4IBAQAHp5CaZvSeRI1u+K4neWq5oM50
PrA/vcOJo3QjJI+gzNLBM0K8PEQH0KgHQflpWNXu5FRn2+hAnAMpFmru0k5+Sfxo
SktB87WDsatRAgFPecmCLLDJjw+klR7WsDVwrboBK1L6OiWcnL/+po1cFrnzSYkO
5DFLMLArQWThUPKd1ceV8f7/B4TCXJb0rMbQ1OvR6xa8JdvSIjb7Dsjy8WvyKEZo
7TP4adOCZY199yWph44fzDMW4n43p6E5lyRptjnycZqvv47qUDcRGDD+ie8asHxe
x4icFdERymLvidefmWlkB+dEFGNc+XVgP8iXdftsDhl23SoVZDEasREL+2Hq
-----END CERTIFICATE-----
