Certificate:
    Data:
        Version: 3 (0x2)
        Serial Number:
            19:1e:e7:cf:fc:b4:c4:dd:60:f5:10:c0:20:94:be:11:dd:6a:8d:ba
        Signature Algorithm: sha256WithRSAEncryption
        Issuer: C=VN, ST=HN, O=VTS, OU=VTS, CN=DUC/emailAddress=manhduc030402@gmail.com
        Validity
            Not Before: Nov  5 18:50:42 2023 GMT
            Not After : Nov  4 18:50:42 2026 GMT
        Subject: C=VN, ST=HN, O=VTS, OU=VTS, CN=DUC/emailAddress=manhduc030402@gmail.com
        Subject Public Key Info:
            Public Key Algorithm: rsaEncryption
                Public-Key: (2048 bit)
                Modulus:
                    00:ae:f4:cc:e7:c7:7e:a0:4d:c5:33:a6:96:08:68:
                    46:76:50:1d:3c:b3:aa:cb:14:14:71:8d:e4:9e:a3:
                    fb:83:cf:7e:71:db:46:93:ad:b9:78:34:9f:04:56:
                    b8:aa:04:98:e6:d2:ca:ad:ae:78:09:91:ef:97:48:
                    1c:1c:26:3b:8b:20:3b:27:a5:8f:33:d9:14:7e:e0:
                    95:b5:4d:2b:ab:da:55:7e:e0:d3:ad:1e:7c:bd:4d:
                    00:d1:f7:ce:f8:d9:73:f2:1f:e4:2b:f5:19:f2:c3:
                    49:b1:cf:16:20:90:b5:7a:85:6c:16:71:ce:15:cd:
                    4c:08:61:14:b0:b9:07:63:88:9f:0a:76:ea:f7:80:
                    01:08:73:8a:3e:47:71:68:5e:75:db:fa:a6:24:43:
                    d7:b4:7d:6a:61:de:ec:bc:ee:84:ea:99:13:a6:07:
                    db:c9:6c:64:d9:3e:17:f3:6b:81:72:c2:7f:38:e6:
                    fb:68:48:d0:0d:98:89:79:9a:ea:ab:80:0f:42:a9:
                    da:17:c0:a2:0c:6c:be:ce:76:c9:f8:01:2b:91:2b:
                    21:c0:76:fa:0d:71:9b:89:77:a2:eb:a1:93:ca:1d:
                    9c:40:3f:67:93:c0:f9:11:66:9c:09:ba:94:61:d1:
                    2c:1b:49:ac:77:aa:72:a4:43:90:4a:57:6e:42:8b:
                    73:27
                Exponent: 65537 (0x10001)
        X509v3 extensions:
            X509v3 Subject Key Identifier: 
                57:E0:0A:55:3E:35:BB:1F:06:F3:C6:59:B2:EF:A5:CA:20:8C:5D:9A
            X509v3 Authority Key Identifier: 
                57:E0:0A:55:3E:35:BB:1F:06:F3:C6:59:B2:EF:A5:CA:20:8C:5D:9A
            X509v3 Basic Constraints: critical
                CA:TRUE
    Signature Algorithm: sha256WithRSAEncryption
    Signature Value:
        2b:7a:1c:c6:9b:50:ac:b3:39:1b:1d:7c:92:3e:ab:65:ed:2b:
        aa:d9:6f:33:b8:ef:02:a9:f8:9b:e1:d9:70:a2:f9:d6:46:b7:
        c2:26:a5:f3:65:32:09:ba:c2:a2:7f:6f:44:b0:cc:41:92:7c:
        88:39:23:a5:b4:67:ed:d6:c7:90:7e:44:b1:31:da:f9:36:9a:
        da:d3:49:3f:fd:0e:6b:b8:a0:71:6b:3f:d6:45:43:b6:80:a8:
        fc:5d:69:b8:11:77:2a:2b:4b:f7:c0:56:76:79:0b:0d:d4:d1:
        92:a9:1e:1b:b2:9c:7a:ac:b4:98:63:5e:f1:38:c8:b3:57:c1:
        1c:96:86:77:85:ce:b9:ba:3b:7f:22:63:6f:3c:a4:31:9b:f6:
        01:a7:27:bd:42:c7:59:d3:9e:3c:dc:17:c6:4c:bf:ec:3a:18:
        e4:33:3c:e9:da:9e:44:e2:bc:62:db:e9:b7:76:b9:53:da:3b:
        93:44:04:02:ef:0b:d9:28:b9:3b:71:7b:6b:4f:ad:ec:6b:7f:
        0c:91:2d:bb:c1:e2:50:63:7c:20:32:53:96:a3:44:5b:4e:a3:
        22:ef:4a:c9:20:81:d5:62:fc:9c:e4:d1:72:ec:12:eb:dd:60:
        70:78:31:95:2a:ed:08:b4:60:9d:ab:5d:bd:a2:5d:0c:1e:73:
        a4:2e:d5:1b
-----BEGIN CERTIFICATE-----
MIIDuTCCAqGgAwIBAgIUGR7nz/y0xN1g9RDAIJS+Ed1qjbowDQYJKoZIhvcNAQEL
BQAwbDELMAkGA1UEBhMCVk4xCzAJBgNVBAgMAkhOMQwwCgYDVQQKDANWVFMxDDAK
BgNVBAsMA1ZUUzEMMAoGA1UEAwwDRFVDMSYwJAYJKoZIhvcNAQkBFhdtYW5oZHVj
MDMwNDAyQGdtYWlsLmNvbTAeFw0yMzExMDUxODUwNDJaFw0yNjExMDQxODUwNDJa
MGwxCzAJBgNVBAYTAlZOMQswCQYDVQQIDAJITjEMMAoGA1UECgwDVlRTMQwwCgYD
VQQLDANWVFMxDDAKBgNVBAMMA0RVQzEmMCQGCSqGSIb3DQEJARYXbWFuaGR1YzAz
MDQwMkBnbWFpbC5jb20wggEiMA0GCSqGSIb3DQEBAQUAA4IBDwAwggEKAoIBAQCu
9Mznx36gTcUzppYIaEZ2UB08s6rLFBRxjeSeo/uDz35x20aTrbl4NJ8EVriqBJjm
0sqtrngJke+XSBwcJjuLIDsnpY8z2RR+4JW1TSur2lV+4NOtHny9TQDR98742XPy
H+Qr9Rnyw0mxzxYgkLV6hWwWcc4VzUwIYRSwuQdjiJ8Kdur3gAEIc4o+R3FoXnXb
+qYkQ9e0fWph3uy87oTqmROmB9vJbGTZPhfza4Fywn845vtoSNANmIl5muqrgA9C
qdoXwKIMbL7Odsn4ASuRKyHAdvoNcZuJd6LroZPKHZxAP2eTwPkRZpwJupRh0Swb
Sax3qnKkQ5BKV25Ci3MnAgMBAAGjUzBRMB0GA1UdDgQWBBRX4ApVPjW7Hwbzxlmy
76XKIIxdmjAfBgNVHSMEGDAWgBRX4ApVPjW7Hwbzxlmy76XKIIxdmjAPBgNVHRMB
Af8EBTADAQH/MA0GCSqGSIb3DQEBCwUAA4IBAQArehzGm1CsszkbHXySPqtl7Suq
2W8zuO8Cqfib4dlwovnWRrfCJqXzZTIJusKif29EsMxBknyIOSOltGft1seQfkSx
Mdr5Npra00k//Q5ruKBxaz/WRUO2gKj8XWm4EXcqK0v3wFZ2eQsN1NGSqR4bspx6
rLSYY17xOMizV8EcloZ3hc65ujt/ImNvPKQxm/YBpye9QsdZ05483BfGTL/sOhjk
Mzzp2p5E4rxi2+m3drlT2juTRAQC7wvZKLk7cXtrT63sa38MkS27weJQY3wgMlOW
o0RbTqMi70rJIIHVYvyc5NFy7BLr3WBweDGVKu0ItGCdq129ol0MHnOkLtUb
-----END CERTIFICATE-----
